; Function Attrs: mustprogress nofree norecurse nosync nounwind willreturn memory(read, inaccessiblemem: none) uwtable
define noundef double @_ZNK8QuantLib17GeneralStatistics9weightSumEv(ptr nocapture noundef nonnull readonly align 8 dereferenceable(25) %this) local_unnamed_addr #0 align 2 {
entry:
  %0 = load ptr, ptr %this, align 8, !tbaa !3
  %_M_finish.i = getelementptr inbounds nuw i8, ptr %this, i64 8
  %1 = load ptr, ptr %_M_finish.i, align 8, !tbaa !3
  %cmp.i.not4 = icmp eq ptr %0, %1
  br i1 %cmp.i.not4, label %for.end, label %for.body

for.body:                                         ; preds = %entry, %for.body
  %result.06 = phi double [ %add, %for.body ], [ 0.000000e+00, %entry ]
  %it.sroa.0.05 = phi ptr [ %incdec.ptr.i, %for.body ], [ %0, %entry ]
  %second = getelementptr inbounds nuw i8, ptr %it.sroa.0.05, i64 8
  %2 = load double, ptr %second, align 8, !tbaa !7
  %add = fadd double %result.06, %2
  %incdec.ptr.i = getelementptr inbounds nuw i8, ptr %it.sroa.0.05, i64 16
  %cmp.i.not = icmp eq ptr %incdec.ptr.i, %1
  br i1 %cmp.i.not, label %for.end, label %for.body, !llvm.loop !10

for.end:                                          ; preds = %for.body, %entry
  %result.0.lcssa = phi double [ 0.000000e+00, %entry ], [ %add, %for.body ]
  ret double %result.0.lcssa
}